target datalayout = "e-m:e-p270:32:32-p271:32:32-p272:64:64-i64:64-i128:128-f80:128-n8:16:32:64-S128"
target triple = "x86_64-pc-linux-gnu"

%"class.cv::obsensor::IFrameProcessor" = type { ptr }
%"struct.cv::obsensor::Frame" = type { i32, i32, i32, i32, ptr }
%"class.cv::obsensor::DepthFrameUnpacker" = type { %"class.cv::obsensor::IFrameProcessor", i32, ptr }

; Function Attrs: mustprogress nounwind uwtable
define hidden void @_ZN2cv8obsensor18DepthFrameUnpacker7processEPNS0_5FrameE(ptr noundef nonnull align 8 dereferenceable(24) %0, ptr noundef %1) unnamed_addr #6 align 2 {
  %3 = alloca ptr, align 8
  %4 = alloca ptr, align 8
  %5 = alloca i8, align 1
  %6 = alloca i8, align 1
  %7 = alloca ptr, align 8
  %8 = alloca ptr, align 8
  %9 = alloca i32, align 4
  %10 = alloca i32, align 4
  store ptr %0, ptr %3, align 8, !tbaa !128
  store ptr %1, ptr %4, align 8, !tbaa !121
  %11 = load ptr, ptr %3, align 8
  call void @llvm.lifetime.start.p0(i64 1, ptr %5) #3
  store i8 16, ptr %5, align 1, !tbaa !4
  call void @llvm.lifetime.start.p0(i64 1, ptr %6) #3
  store i8 28, ptr %6, align 1, !tbaa !4
  call void @llvm.lifetime.start.p0(i64 8, ptr %7) #3
  %12 = getelementptr inbounds nuw %"class.cv::obsensor::DepthFrameUnpacker", ptr %11, i32 0, i32 2
  %13 = load ptr, ptr %12, align 8, !tbaa !132
  store ptr %13, ptr %7, align 8, !tbaa !125
  call void @llvm.lifetime.start.p0(i64 8, ptr %8) #3
  %14 = load ptr, ptr %4, align 8, !tbaa !121
  %15 = getelementptr inbounds nuw %"struct.cv::obsensor::Frame", ptr %14, i32 0, i32 4
  %16 = load ptr, ptr %15, align 8, !tbaa !123
  store ptr %16, ptr %8, align 8, !tbaa !30
  call void @llvm.lifetime.start.p0(i64 4, ptr %9) #3
  %17 = load ptr, ptr %4, align 8, !tbaa !121
  %18 = getelementptr inbounds nuw %"struct.cv::obsensor::Frame", ptr %17, i32 0, i32 1
  %19 = load i32, ptr %18, align 4, !tbaa !133
  %20 = load ptr, ptr %4, align 8, !tbaa !121
  %21 = getelementptr inbounds nuw %"struct.cv::obsensor::Frame", ptr %20, i32 0, i32 2
  %22 = load i32, ptr %21, align 8, !tbaa !134
  %23 = mul i32 %19, %22
  store i32 %23, ptr %9, align 4, !tbaa !31
  call void @llvm.lifetime.start.p0(i64 4, ptr %10) #3
  store i32 0, ptr %10, align 4, !tbaa !31
  br label %24

24:                                               ; preds = %370, %2
  %25 = load i32, ptr %10, align 4, !tbaa !31
  %26 = load i32, ptr %9, align 4, !tbaa !31
  %27 = icmp ult i32 %25, %26
  br i1 %27, label %29, label %28

28:                                               ; preds = %24
  call void @llvm.lifetime.end.p0(i64 4, ptr %10) #3
  br label %373

29:                                               ; preds = %24
  %30 = load ptr, ptr %8, align 8, !tbaa !30
  %31 = getelementptr inbounds i8, ptr %30, i64 0
  %32 = load i8, ptr %31, align 1, !tbaa !4
  %33 = zext i8 %32 to i32
  %34 = and i32 %33, 255
  %35 = ashr i32 %34, 0
  %36 = shl i32 %35, 6
  %37 = load ptr, ptr %8, align 8, !tbaa !30
  %38 = getelementptr inbounds i8, ptr %37, i64 1
  %39 = load i8, ptr %38, align 1, !tbaa !4
  %40 = zext i8 %39 to i32
  %41 = and i32 %40, 252
  %42 = ashr i32 %41, 2
  %43 = or i32 %36, %42
  %44 = trunc i32 %43 to i16
  %45 = load ptr, ptr %7, align 8, !tbaa !125
  %46 = getelementptr inbounds i16, ptr %45, i64 0
  store i16 %44, ptr %46, align 2, !tbaa !114
  %47 = load ptr, ptr %8, align 8, !tbaa !30
  %48 = getelementptr inbounds i8, ptr %47, i64 1
  %49 = load i8, ptr %48, align 1, !tbaa !4
  %50 = zext i8 %49 to i32
  %51 = and i32 %50, 3
  %52 = ashr i32 %51, 0
  %53 = shl i32 %52, 12
  %54 = load ptr, ptr %8, align 8, !tbaa !30
  %55 = getelementptr inbounds i8, ptr %54, i64 2
  %56 = load i8, ptr %55, align 1, !tbaa !4
  %57 = zext i8 %56 to i32
  %58 = and i32 %57, 255
  %59 = ashr i32 %58, 0
  %60 = shl i32 %59, 4
  %61 = or i32 %53, %60
  %62 = load ptr, ptr %8, align 8, !tbaa !30
  %63 = getelementptr inbounds i8, ptr %62, i64 3
  %64 = load i8, ptr %63, align 1, !tbaa !4
  %65 = zext i8 %64 to i32
  %66 = and i32 %65, 240
  %67 = ashr i32 %66, 4
  %68 = or i32 %61, %67
  %69 = trunc i32 %68 to i16
  %70 = load ptr, ptr %7, align 8, !tbaa !125
  %71 = getelementptr inbounds i16, ptr %70, i64 1
  store i16 %69, ptr %71, align 2, !tbaa !114
  %72 = load ptr, ptr %8, align 8, !tbaa !30
  %73 = getelementptr inbounds i8, ptr %72, i64 3
  %74 = load i8, ptr %73, align 1, !tbaa !4
  %75 = zext i8 %74 to i32
  %76 = and i32 %75, 15
  %77 = ashr i32 %76, 0
  %78 = shl i32 %77, 10
  %79 = load ptr, ptr %8, align 8, !tbaa !30
  %80 = getelementptr inbounds i8, ptr %79, i64 4
  %81 = load i8, ptr %80, align 1, !tbaa !4
  %82 = zext i8 %81 to i32
  %83 = and i32 %82, 255
  %84 = ashr i32 %83, 0
  %85 = shl i32 %84, 2
  %86 = or i32 %78, %85
  %87 = load ptr, ptr %8, align 8, !tbaa !30
  %88 = getelementptr inbounds i8, ptr %87, i64 5
  %89 = load i8, ptr %88, align 1, !tbaa !4
  %90 = zext i8 %89 to i32
  %91 = and i32 %90, 192
  %92 = ashr i32 %91, 6
  %93 = or i32 %86, %92
  %94 = trunc i32 %93 to i16
  %95 = load ptr, ptr %7, align 8, !tbaa !125
  %96 = getelementptr inbounds i16, ptr %95, i64 2
  store i16 %94, ptr %96, align 2, !tbaa !114
  %97 = load ptr, ptr %8, align 8, !tbaa !30
  %98 = getelementptr inbounds i8, ptr %97, i64 5
  %99 = load i8, ptr %98, align 1, !tbaa !4
  %100 = zext i8 %99 to i32
  %101 = and i32 %100, 63
  %102 = ashr i32 %101, 0
  %103 = shl i32 %102, 8
  %104 = load ptr, ptr %8, align 8, !tbaa !30
  %105 = getelementptr inbounds i8, ptr %104, i64 6
  %106 = load i8, ptr %105, align 1, !tbaa !4
  %107 = zext i8 %106 to i32
  %108 = and i32 %107, 255
  %109 = ashr i32 %108, 0
  %110 = or i32 %103, %109
  %111 = trunc i32 %110 to i16
  %112 = load ptr, ptr %7, align 8, !tbaa !125
  %113 = getelementptr inbounds i16, ptr %112, i64 3
  store i16 %111, ptr %113, align 2, !tbaa !114
  %114 = load ptr, ptr %8, align 8, !tbaa !30
  %115 = getelementptr inbounds i8, ptr %114, i64 7
  %116 = load i8, ptr %115, align 1, !tbaa !4
  %117 = zext i8 %116 to i32
  %118 = and i32 %117, 255
  %119 = ashr i32 %118, 0
  %120 = shl i32 %119, 6
  %121 = load ptr, ptr %8, align 8, !tbaa !30
  %122 = getelementptr inbounds i8, ptr %121, i64 8
  %123 = load i8, ptr %122, align 1, !tbaa !4
  %124 = zext i8 %123 to i32
  %125 = and i32 %124, 252
  %126 = ashr i32 %125, 2
  %127 = or i32 %120, %126
  %128 = trunc i32 %127 to i16
  %129 = load ptr, ptr %7, align 8, !tbaa !125
  %130 = getelementptr inbounds i16, ptr %129, i64 4
  store i16 %128, ptr %130, align 2, !tbaa !114
  %131 = load ptr, ptr %8, align 8, !tbaa !30
  %132 = getelementptr inbounds i8, ptr %131, i64 8
  %133 = load i8, ptr %132, align 1, !tbaa !4
  %134 = zext i8 %133 to i32
  %135 = and i32 %134, 3
  %136 = ashr i32 %135, 0
  %137 = shl i32 %136, 12
  %138 = load ptr, ptr %8, align 8, !tbaa !30
  %139 = getelementptr inbounds i8, ptr %138, i64 9
  %140 = load i8, ptr %139, align 1, !tbaa !4
  %141 = zext i8 %140 to i32
  %142 = and i32 %141, 255
  %143 = ashr i32 %142, 0
  %144 = shl i32 %143, 4
  %145 = or i32 %137, %144
  %146 = load ptr, ptr %8, align 8, !tbaa !30
  %147 = getelementptr inbounds i8, ptr %146, i64 10
  %148 = load i8, ptr %147, align 1, !tbaa !4
  %149 = zext i8 %148 to i32
  %150 = and i32 %149, 240
  %151 = ashr i32 %150, 4
  %152 = or i32 %145, %151
  %153 = trunc i32 %152 to i16
  %154 = load ptr, ptr %7, align 8, !tbaa !125
  %155 = getelementptr inbounds i16, ptr %154, i64 5
  store i16 %153, ptr %155, align 2, !tbaa !114
  %156 = load ptr, ptr %8, align 8, !tbaa !30
  %157 = getelementptr inbounds i8, ptr %156, i64 10
  %158 = load i8, ptr %157, align 1, !tbaa !4
  %159 = zext i8 %158 to i32
  %160 = and i32 %159, 15
  %161 = ashr i32 %160, 0
  %162 = shl i32 %161, 10
  %163 = load ptr, ptr %8, align 8, !tbaa !30
  %164 = getelementptr inbounds i8, ptr %163, i64 11
  %165 = load i8, ptr %164, align 1, !tbaa !4
  %166 = zext i8 %165 to i32
  %167 = and i32 %166, 255
  %168 = ashr i32 %167, 0
  %169 = shl i32 %168, 2
  %170 = or i32 %162, %169
  %171 = load ptr, ptr %8, align 8, !tbaa !30
  %172 = getelementptr inbounds i8, ptr %171, i64 12
  %173 = load i8, ptr %172, align 1, !tbaa !4
  %174 = zext i8 %173 to i32
  %175 = and i32 %174, 192
  %176 = ashr i32 %175, 6
  %177 = or i32 %170, %176
  %178 = trunc i32 %177 to i16
  %179 = load ptr, ptr %7, align 8, !tbaa !125
  %180 = getelementptr inbounds i16, ptr %179, i64 6
  store i16 %178, ptr %180, align 2, !tbaa !114
  %181 = load ptr, ptr %8, align 8, !tbaa !30
  %182 = getelementptr inbounds i8, ptr %181, i64 12
  %183 = load i8, ptr %182, align 1, !tbaa !4
  %184 = zext i8 %183 to i32
  %185 = and i32 %184, 63
  %186 = ashr i32 %185, 0
  %187 = shl i32 %186, 8
  %188 = load ptr, ptr %8, align 8, !tbaa !30
  %189 = getelementptr inbounds i8, ptr %188, i64 13
  %190 = load i8, ptr %189, align 1, !tbaa !4
  %191 = zext i8 %190 to i32
  %192 = and i32 %191, 255
  %193 = ashr i32 %192, 0
  %194 = or i32 %187, %193
  %195 = trunc i32 %194 to i16
  %196 = load ptr, ptr %7, align 8, !tbaa !125
  %197 = getelementptr inbounds i16, ptr %196, i64 7
  store i16 %195, ptr %197, align 2, !tbaa !114
  %198 = load ptr, ptr %8, align 8, !tbaa !30
  %199 = getelementptr inbounds i8, ptr %198, i64 14
  %200 = load i8, ptr %199, align 1, !tbaa !4
  %201 = zext i8 %200 to i32
  %202 = and i32 %201, 255
  %203 = ashr i32 %202, 0
  %204 = shl i32 %203, 6
  %205 = load ptr, ptr %8, align 8, !tbaa !30
  %206 = getelementptr inbounds i8, ptr %205, i64 15
  %207 = load i8, ptr %206, align 1, !tbaa !4
  %208 = zext i8 %207 to i32
  %209 = and i32 %208, 252
  %210 = ashr i32 %209, 2
  %211 = or i32 %204, %210
  %212 = trunc i32 %211 to i16
  %213 = load ptr, ptr %7, align 8, !tbaa !125
  %214 = getelementptr inbounds i16, ptr %213, i64 8
  store i16 %212, ptr %214, align 2, !tbaa !114
  %215 = load ptr, ptr %8, align 8, !tbaa !30
  %216 = getelementptr inbounds i8, ptr %215, i64 15
  %217 = load i8, ptr %216, align 1, !tbaa !4
  %218 = zext i8 %217 to i32
  %219 = and i32 %218, 3
  %220 = ashr i32 %219, 0
  %221 = shl i32 %220, 12
  %222 = load ptr, ptr %8, align 8, !tbaa !30
  %223 = getelementptr inbounds i8, ptr %222, i64 16
  %224 = load i8, ptr %223, align 1, !tbaa !4
  %225 = zext i8 %224 to i32
  %226 = and i32 %225, 255
  %227 = ashr i32 %226, 0
  %228 = shl i32 %227, 4
  %229 = or i32 %221, %228
  %230 = load ptr, ptr %8, align 8, !tbaa !30
  %231 = getelementptr inbounds i8, ptr %230, i64 17
  %232 = load i8, ptr %231, align 1, !tbaa !4
  %233 = zext i8 %232 to i32
  %234 = and i32 %233, 240
  %235 = ashr i32 %234, 4
  %236 = or i32 %229, %235
  %237 = trunc i32 %236 to i16
  %238 = load ptr, ptr %7, align 8, !tbaa !125
  %239 = getelementptr inbounds i16, ptr %238, i64 9
  store i16 %237, ptr %239, align 2, !tbaa !114
  %240 = load ptr, ptr %8, align 8, !tbaa !30
  %241 = getelementptr inbounds i8, ptr %240, i64 17
  %242 = load i8, ptr %241, align 1, !tbaa !4
  %243 = zext i8 %242 to i32
  %244 = and i32 %243, 15
  %245 = ashr i32 %244, 0
  %246 = shl i32 %245, 10
  %247 = load ptr, ptr %8, align 8, !tbaa !30
  %248 = getelementptr inbounds i8, ptr %247, i64 18
  %249 = load i8, ptr %248, align 1, !tbaa !4
  %250 = zext i8 %249 to i32
  %251 = and i32 %250, 255
  %252 = ashr i32 %251, 0
  %253 = shl i32 %252, 2
  %254 = or i32 %246, %253
  %255 = load ptr, ptr %8, align 8, !tbaa !30
  %256 = getelementptr inbounds i8, ptr %255, i64 19
  %257 = load i8, ptr %256, align 1, !tbaa !4
  %258 = zext i8 %257 to i32
  %259 = and i32 %258, 192
  %260 = ashr i32 %259, 6
  %261 = or i32 %254, %260
  %262 = trunc i32 %261 to i16
  %263 = load ptr, ptr %7, align 8, !tbaa !125
  %264 = getelementptr inbounds i16, ptr %263, i64 10
  store i16 %262, ptr %264, align 2, !tbaa !114
  %265 = load ptr, ptr %8, align 8, !tbaa !30
  %266 = getelementptr inbounds i8, ptr %265, i64 19
  %267 = load i8, ptr %266, align 1, !tbaa !4
  %268 = zext i8 %267 to i32
  %269 = and i32 %268, 63
  %270 = ashr i32 %269, 0
  %271 = shl i32 %270, 8
  %272 = load ptr, ptr %8, align 8, !tbaa !30
  %273 = getelementptr inbounds i8, ptr %272, i64 20
  %274 = load i8, ptr %273, align 1, !tbaa !4
  %275 = zext i8 %274 to i32
  %276 = and i32 %275, 255
  %277 = ashr i32 %276, 0
  %278 = or i32 %271, %277
  %279 = trunc i32 %278 to i16
  %280 = load ptr, ptr %7, align 8, !tbaa !125
  %281 = getelementptr inbounds i16, ptr %280, i64 11
  store i16 %279, ptr %281, align 2, !tbaa !114
  %282 = load ptr, ptr %8, align 8, !tbaa !30
  %283 = getelementptr inbounds i8, ptr %282, i64 21
  %284 = load i8, ptr %283, align 1, !tbaa !4
  %285 = zext i8 %284 to i32
  %286 = and i32 %285, 255
  %287 = ashr i32 %286, 0
  %288 = shl i32 %287, 6
  %289 = load ptr, ptr %8, align 8, !tbaa !30
  %290 = getelementptr inbounds i8, ptr %289, i64 22
  %291 = load i8, ptr %290, align 1, !tbaa !4
  %292 = zext i8 %291 to i32
  %293 = and i32 %292, 252
  %294 = ashr i32 %293, 2
  %295 = or i32 %288, %294
  %296 = trunc i32 %295 to i16
  %297 = load ptr, ptr %7, align 8, !tbaa !125
  %298 = getelementptr inbounds i16, ptr %297, i64 12
  store i16 %296, ptr %298, align 2, !tbaa !114
  %299 = load ptr, ptr %8, align 8, !tbaa !30
  %300 = getelementptr inbounds i8, ptr %299, i64 22
  %301 = load i8, ptr %300, align 1, !tbaa !4
  %302 = zext i8 %301 to i32
  %303 = and i32 %302, 3
  %304 = ashr i32 %303, 0
  %305 = shl i32 %304, 12
  %306 = load ptr, ptr %8, align 8, !tbaa !30
  %307 = getelementptr inbounds i8, ptr %306, i64 23
  %308 = load i8, ptr %307, align 1, !tbaa !4
  %309 = zext i8 %308 to i32
  %310 = and i32 %309, 255
  %311 = ashr i32 %310, 0
  %312 = shl i32 %311, 4
  %313 = or i32 %305, %312
  %314 = load ptr, ptr %8, align 8, !tbaa !30
  %315 = getelementptr inbounds i8, ptr %314, i64 24
  %316 = load i8, ptr %315, align 1, !tbaa !4
  %317 = zext i8 %316 to i32
  %318 = and i32 %317, 240
  %319 = ashr i32 %318, 4
  %320 = or i32 %313, %319
  %321 = trunc i32 %320 to i16
  %322 = load ptr, ptr %7, align 8, !tbaa !125
  %323 = getelementptr inbounds i16, ptr %322, i64 13
  store i16 %321, ptr %323, align 2, !tbaa !114
  %324 = load ptr, ptr %8, align 8, !tbaa !30
  %325 = getelementptr inbounds i8, ptr %324, i64 24
  %326 = load i8, ptr %325, align 1, !tbaa !4
  %327 = zext i8 %326 to i32
  %328 = and i32 %327, 15
  %329 = ashr i32 %328, 0
  %330 = shl i32 %329, 10
  %331 = load ptr, ptr %8, align 8, !tbaa !30
  %332 = getelementptr inbounds i8, ptr %331, i64 25
  %333 = load i8, ptr %332, align 1, !tbaa !4
  %334 = zext i8 %333 to i32
  %335 = and i32 %334, 255
  %336 = ashr i32 %335, 0
  %337 = shl i32 %336, 2
  %338 = or i32 %330, %337
  %339 = load ptr, ptr %8, align 8, !tbaa !30
  %340 = getelementptr inbounds i8, ptr %339, i64 26
  %341 = load i8, ptr %340, align 1, !tbaa !4
  %342 = zext i8 %341 to i32
  %343 = and i32 %342, 192
  %344 = ashr i32 %343, 6
  %345 = or i32 %338, %344
  %346 = trunc i32 %345 to i16
  %347 = load ptr, ptr %7, align 8, !tbaa !125
  %348 = getelementptr inbounds i16, ptr %347, i64 14
  store i16 %346, ptr %348, align 2, !tbaa !114
  %349 = load ptr, ptr %8, align 8, !tbaa !30
  %350 = getelementptr inbounds i8, ptr %349, i64 26
  %351 = load i8, ptr %350, align 1, !tbaa !4
  %352 = zext i8 %351 to i32
  %353 = and i32 %352, 63
  %354 = ashr i32 %353, 0
  %355 = shl i32 %354, 8
  %356 = load ptr, ptr %8, align 8, !tbaa !30
  %357 = getelementptr inbounds i8, ptr %356, i64 27
  %358 = load i8, ptr %357, align 1, !tbaa !4
  %359 = zext i8 %358 to i32
  %360 = and i32 %359, 255
  %361 = ashr i32 %360, 0
  %362 = or i32 %355, %361
  %363 = trunc i32 %362 to i16
  %364 = load ptr, ptr %7, align 8, !tbaa !125
  %365 = getelementptr inbounds i16, ptr %364, i64 15
  store i16 %363, ptr %365, align 2, !tbaa !114
  %366 = load ptr, ptr %8, align 8, !tbaa !30
  %367 = getelementptr inbounds i8, ptr %366, i64 28
  store ptr %367, ptr %8, align 8, !tbaa !30
  %368 = load ptr, ptr %7, align 8, !tbaa !125
  %369 = getelementptr inbounds i16, ptr %368, i64 16
  store ptr %369, ptr %7, align 8, !tbaa !125
  br label %370

370:                                              ; preds = %29
  %371 = load i32, ptr %10, align 4, !tbaa !31
  %372 = add i32 %371, 16
  store i32 %372, ptr %10, align 4, !tbaa !31
  br label %24, !llvm.loop !135

373:                                              ; preds = %28
  %374 = getelementptr inbounds nuw %"class.cv::obsensor::DepthFrameUnpacker", ptr %11, i32 0, i32 2
  %375 = load ptr, ptr %374, align 8, !tbaa !132
  %376 = load ptr, ptr %4, align 8, !tbaa !121
  %377 = getelementptr inbounds nuw %"struct.cv::obsensor::Frame", ptr %376, i32 0, i32 4
  store ptr %375, ptr %377, align 8, !tbaa !123
  %378 = load ptr, ptr %4, align 8, !tbaa !121
  %379 = getelementptr inbounds nuw %"struct.cv::obsensor::Frame", ptr %378, i32 0, i32 0
  store i32 8, ptr %379, align 8, !tbaa !136
  call void @llvm.lifetime.end.p0(i64 4, ptr %9) #3
  call void @llvm.lifetime.end.p0(i64 8, ptr %8) #3
  call void @llvm.lifetime.end.p0(i64 8, ptr %7) #3
  call void @llvm.lifetime.end.p0(i64 1, ptr %6) #3
  call void @llvm.lifetime.end.p0(i64 1, ptr %5) #3
  ret void
}