; Function Attrs: mustprogress nofree norecurse nosync nounwind memory(readwrite, inaccessiblemem: none) uwtable
define hidden void @_ZN2cv8obsensor18DepthFrameUnpacker7processEPNS0_5FrameE(ptr noundef nonnull readonly align 8 captures(none) dereferenceable(24) %0, ptr noundef captures(none) %1) unnamed_addr #13 align 2 {
  %3 = getelementptr inbounds nuw i8, ptr %0, i64 16
  %4 = load ptr, ptr %3, align 8, !tbaa !103
  %5 = getelementptr inbounds nuw i8, ptr %1, i64 16
  %6 = getelementptr inbounds nuw i8, ptr %1, i64 4
  %7 = load i32, ptr %6, align 4, !tbaa !104
  %8 = getelementptr inbounds nuw i8, ptr %1, i64 8
  %9 = load i32, ptr %8, align 8, !tbaa !105
  %10 = mul i32 %9, %7
  %.not = icmp eq i32 %10, 0
  br i1 %.not, label %._crit_edge, label %.lr.ph.preheader

.lr.ph.preheader:                                 ; preds = %2
  %11 = load ptr, ptr %5, align 8, !tbaa !97
  br label %.lr.ph

._crit_edge:                                      ; preds = %.lr.ph, %2
  store ptr %4, ptr %5, align 8, !tbaa !97
  store i32 8, ptr %1, align 8, !tbaa !106
  ret void

.lr.ph:                                           ; preds = %.lr.ph.preheader, %.lr.ph
  %.070 = phi i32 [ %208, %.lr.ph ], [ 0, %.lr.ph.preheader ]
  %.06669 = phi ptr [ %207, %.lr.ph ], [ %4, %.lr.ph.preheader ]
  %.06768 = phi ptr [ %206, %.lr.ph ], [ %11, %.lr.ph.preheader ]
  %12 = load i8, ptr %.06768, align 1, !tbaa !29
  %13 = zext i8 %12 to i16
  %14 = shl nuw nsw i16 %13, 6
  %15 = getelementptr inbounds nuw i8, ptr %.06768, i64 1
  %16 = load i8, ptr %15, align 1, !tbaa !29
  %17 = lshr i8 %16, 2
  %18 = zext nneg i8 %17 to i16
  %19 = or disjoint i16 %14, %18
  store i16 %19, ptr %.06669, align 2, !tbaa !95
  %20 = load i8, ptr %15, align 1, !tbaa !29
  %21 = and i8 %20, 3
  %22 = zext nneg i8 %21 to i16
  %23 = shl nuw nsw i16 %22, 12
  %24 = getelementptr inbounds nuw i8, ptr %.06768, i64 2
  %25 = load i8, ptr %24, align 1, !tbaa !29
  %26 = zext i8 %25 to i16
  %27 = shl nuw nsw i16 %26, 4
  %28 = or disjoint i16 %23, %27
  %29 = getelementptr inbounds nuw i8, ptr %.06768, i64 3
  %30 = load i8, ptr %29, align 1, !tbaa !29
  %31 = lshr i8 %30, 4
  %32 = zext nneg i8 %31 to i16
  %33 = or disjoint i16 %28, %32
  %34 = getelementptr inbounds nuw i8, ptr %.06669, i64 2
  store i16 %33, ptr %34, align 2, !tbaa !95
  %35 = load i8, ptr %29, align 1, !tbaa !29
  %36 = and i8 %35, 15
  %37 = zext nneg i8 %36 to i16
  %38 = shl nuw nsw i16 %37, 10
  %39 = getelementptr inbounds nuw i8, ptr %.06768, i64 4
  %40 = load i8, ptr %39, align 1, !tbaa !29
  %41 = zext i8 %40 to i16
  %42 = shl nuw nsw i16 %41, 2
  %43 = or disjoint i16 %38, %42
  %44 = getelementptr inbounds nuw i8, ptr %.06768, i64 5
  %45 = load i8, ptr %44, align 1, !tbaa !29
  %46 = lshr i8 %45, 6
  %47 = zext nneg i8 %46 to i16
  %48 = or disjoint i16 %43, %47
  %49 = getelementptr inbounds nuw i8, ptr %.06669, i64 4
  store i16 %48, ptr %49, align 2, !tbaa !95
  %50 = load i8, ptr %44, align 1, !tbaa !29
  %51 = and i8 %50, 63
  %52 = zext nneg i8 %51 to i16
  %53 = shl nuw nsw i16 %52, 8
  %54 = getelementptr inbounds nuw i8, ptr %.06768, i64 6
  %55 = load i8, ptr %54, align 1, !tbaa !29
  %56 = zext i8 %55 to i16
  %57 = or disjoint i16 %53, %56
  %58 = getelementptr inbounds nuw i8, ptr %.06669, i64 6
  store i16 %57, ptr %58, align 2, !tbaa !95
  %59 = getelementptr inbounds nuw i8, ptr %.06768, i64 7
  %60 = load i8, ptr %59, align 1, !tbaa !29
  %61 = zext i8 %60 to i16
  %62 = shl nuw nsw i16 %61, 6
  %63 = getelementptr inbounds nuw i8, ptr %.06768, i64 8
  %64 = load i8, ptr %63, align 1, !tbaa !29
  %65 = lshr i8 %64, 2
  %66 = zext nneg i8 %65 to i16
  %67 = or disjoint i16 %62, %66
  %68 = getelementptr inbounds nuw i8, ptr %.06669, i64 8
  store i16 %67, ptr %68, align 2, !tbaa !95
  %69 = load i8, ptr %63, align 1, !tbaa !29
  %70 = and i8 %69, 3
  %71 = zext nneg i8 %70 to i16
  %72 = shl nuw nsw i16 %71, 12
  %73 = getelementptr inbounds nuw i8, ptr %.06768, i64 9
  %74 = load i8, ptr %73, align 1, !tbaa !29
  %75 = zext i8 %74 to i16
  %76 = shl nuw nsw i16 %75, 4
  %77 = or disjoint i16 %72, %76
  %78 = getelementptr inbounds nuw i8, ptr %.06768, i64 10
  %79 = load i8, ptr %78, align 1, !tbaa !29
  %80 = lshr i8 %79, 4
  %81 = zext nneg i8 %80 to i16
  %82 = or disjoint i16 %77, %81
  %83 = getelementptr inbounds nuw i8, ptr %.06669, i64 10
  store i16 %82, ptr %83, align 2, !tbaa !95
  %84 = load i8, ptr %78, align 1, !tbaa !29
  %85 = and i8 %84, 15
  %86 = zext nneg i8 %85 to i16
  %87 = shl nuw nsw i16 %86, 10
  %88 = getelementptr inbounds nuw i8, ptr %.06768, i64 11
  %89 = load i8, ptr %88, align 1, !tbaa !29
  %90 = zext i8 %89 to i16
  %91 = shl nuw nsw i16 %90, 2
  %92 = or disjoint i16 %87, %91
  %93 = getelementptr inbounds nuw i8, ptr %.06768, i64 12
  %94 = load i8, ptr %93, align 1, !tbaa !29
  %95 = lshr i8 %94, 6
  %96 = zext nneg i8 %95 to i16
  %97 = or disjoint i16 %92, %96
  %98 = getelementptr inbounds nuw i8, ptr %.06669, i64 12
  store i16 %97, ptr %98, align 2, !tbaa !95
  %99 = load i8, ptr %93, align 1, !tbaa !29
  %100 = and i8 %99, 63
  %101 = zext nneg i8 %100 to i16
  %102 = shl nuw nsw i16 %101, 8
  %103 = getelementptr inbounds nuw i8, ptr %.06768, i64 13
  %104 = load i8, ptr %103, align 1, !tbaa !29
  %105 = zext i8 %104 to i16
  %106 = or disjoint i16 %102, %105
  %107 = getelementptr inbounds nuw i8, ptr %.06669, i64 14
  store i16 %106, ptr %107, align 2, !tbaa !95
  %108 = getelementptr inbounds nuw i8, ptr %.06768, i64 14
  %109 = load i8, ptr %108, align 1, !tbaa !29
  %110 = zext i8 %109 to i16
  %111 = shl nuw nsw i16 %110, 6
  %112 = getelementptr inbounds nuw i8, ptr %.06768, i64 15
  %113 = load i8, ptr %112, align 1, !tbaa !29
  %114 = lshr i8 %113, 2
  %115 = zext nneg i8 %114 to i16
  %116 = or disjoint i16 %111, %115
  %117 = getelementptr inbounds nuw i8, ptr %.06669, i64 16
  store i16 %116, ptr %117, align 2, !tbaa !95
  %118 = load i8, ptr %112, align 1, !tbaa !29
  %119 = and i8 %118, 3
  %120 = zext nneg i8 %119 to i16
  %121 = shl nuw nsw i16 %120, 12
  %122 = getelementptr inbounds nuw i8, ptr %.06768, i64 16
  %123 = load i8, ptr %122, align 1, !tbaa !29
  %124 = zext i8 %123 to i16
  %125 = shl nuw nsw i16 %124, 4
  %126 = or disjoint i16 %121, %125
  %127 = getelementptr inbounds nuw i8, ptr %.06768, i64 17
  %128 = load i8, ptr %127, align 1, !tbaa !29
  %129 = lshr i8 %128, 4
  %130 = zext nneg i8 %129 to i16
  %131 = or disjoint i16 %126, %130
  %132 = getelementptr inbounds nuw i8, ptr %.06669, i64 18
  store i16 %131, ptr %132, align 2, !tbaa !95
  %133 = load i8, ptr %127, align 1, !tbaa !29
  %134 = and i8 %133, 15
  %135 = zext nneg i8 %134 to i16
  %136 = shl nuw nsw i16 %135, 10
  %137 = getelementptr inbounds nuw i8, ptr %.06768, i64 18
  %138 = load i8, ptr %137, align 1, !tbaa !29
  %139 = zext i8 %138 to i16
  %140 = shl nuw nsw i16 %139, 2
  %141 = or disjoint i16 %136, %140
  %142 = getelementptr inbounds nuw i8, ptr %.06768, i64 19
  %143 = load i8, ptr %142, align 1, !tbaa !29
  %144 = lshr i8 %143, 6
  %145 = zext nneg i8 %144 to i16
  %146 = or disjoint i16 %141, %145
  %147 = getelementptr inbounds nuw i8, ptr %.06669, i64 20
  store i16 %146, ptr %147, align 2, !tbaa !95
  %148 = load i8, ptr %142, align 1, !tbaa !29
  %149 = and i8 %148, 63
  %150 = zext nneg i8 %149 to i16
  %151 = shl nuw nsw i16 %150, 8
  %152 = getelementptr inbounds nuw i8, ptr %.06768, i64 20
  %153 = load i8, ptr %152, align 1, !tbaa !29
  %154 = zext i8 %153 to i16
  %155 = or disjoint i16 %151, %154
  %156 = getelementptr inbounds nuw i8, ptr %.06669, i64 22
  store i16 %155, ptr %156, align 2, !tbaa !95
  %157 = getelementptr inbounds nuw i8, ptr %.06768, i64 21
  %158 = load i8, ptr %157, align 1, !tbaa !29
  %159 = zext i8 %158 to i16
  %160 = shl nuw nsw i16 %159, 6
  %161 = getelementptr inbounds nuw i8, ptr %.06768, i64 22
  %162 = load i8, ptr %161, align 1, !tbaa !29
  %163 = lshr i8 %162, 2
  %164 = zext nneg i8 %163 to i16
  %165 = or disjoint i16 %160, %164
  %166 = getelementptr inbounds nuw i8, ptr %.06669, i64 24
  store i16 %165, ptr %166, align 2, !tbaa !95
  %167 = load i8, ptr %161, align 1, !tbaa !29
  %168 = and i8 %167, 3
  %169 = zext nneg i8 %168 to i16
  %170 = shl nuw nsw i16 %169, 12
  %171 = getelementptr inbounds nuw i8, ptr %.06768, i64 23
  %172 = load i8, ptr %171, align 1, !tbaa !29
  %173 = zext i8 %172 to i16
  %174 = shl nuw nsw i16 %173, 4
  %175 = or disjoint i16 %170, %174
  %176 = getelementptr inbounds nuw i8, ptr %.06768, i64 24
  %177 = load i8, ptr %176, align 1, !tbaa !29
  %178 = lshr i8 %177, 4
  %179 = zext nneg i8 %178 to i16
  %180 = or disjoint i16 %175, %179
  %181 = getelementptr inbounds nuw i8, ptr %.06669, i64 26
  store i16 %180, ptr %181, align 2, !tbaa !95
  %182 = load i8, ptr %176, align 1, !tbaa !29
  %183 = and i8 %182, 15
  %184 = zext nneg i8 %183 to i16
  %185 = shl nuw nsw i16 %184, 10
  %186 = getelementptr inbounds nuw i8, ptr %.06768, i64 25
  %187 = load i8, ptr %186, align 1, !tbaa !29
  %188 = zext i8 %187 to i16
  %189 = shl nuw nsw i16 %188, 2
  %190 = or disjoint i16 %185, %189
  %191 = getelementptr inbounds nuw i8, ptr %.06768, i64 26
  %192 = load i8, ptr %191, align 1, !tbaa !29
  %193 = lshr i8 %192, 6
  %194 = zext nneg i8 %193 to i16
  %195 = or disjoint i16 %190, %194
  %196 = getelementptr inbounds nuw i8, ptr %.06669, i64 28
  store i16 %195, ptr %196, align 2, !tbaa !95
  %197 = load i8, ptr %191, align 1, !tbaa !29
  %198 = and i8 %197, 63
  %199 = zext nneg i8 %198 to i16
  %200 = shl nuw nsw i16 %199, 8
  %201 = getelementptr inbounds nuw i8, ptr %.06768, i64 27
  %202 = load i8, ptr %201, align 1, !tbaa !29
  %203 = zext i8 %202 to i16
  %204 = or disjoint i16 %200, %203
  %205 = getelementptr inbounds nuw i8, ptr %.06669, i64 30
  store i16 %204, ptr %205, align 2, !tbaa !95
  %206 = getelementptr inbounds nuw i8, ptr %.06768, i64 28
  %207 = getelementptr inbounds nuw i8, ptr %.06669, i64 32
  %208 = add nuw i32 %.070, 16
  %209 = icmp ult i32 %208, %10
  br i1 %209, label %.lr.ph, label %._crit_edge, !llvm.loop !107
}